target datalayout = "e-m:e-p270:32:32-p271:32:32-p272:64:64-i64:64-i128:128-f80:128-n8:16:32:64-S128"
target triple = "x86_64-pc-linux-gnu"

%struct.pmix_object_t = type { %union.pthread_mutex_t, ptr, i32, %struct.pmix_tma }
%struct.pmix_tma = type { ptr, ptr, ptr, ptr, ptr, ptr, ptr, ptr }
%union.pthread_mutex_t = type { %struct.__pthread_mutex_s }
%struct.__pthread_mutex_s = type { i32, i32, i32, i32, i32, i16, i16, %struct.__pthread_internal_list }
%struct.__pthread_internal_list = type { ptr, ptr }
%struct.pmix_client_globals_t = type { ptr, i8, %struct.pmix_list_t, %struct.pmix_pointer_array_t, %struct.pmix_list_t, i32, i32, i32, i32, i32, i32, i32, i32, i32, i32, i32, i32, i32, i32, i32, i32, %struct.pmix_iof_sink_t, %struct.pmix_iof_sink_t, i32, i32 }
%struct.pmix_pointer_array_t = type { %struct.pmix_object_t, i32, i32, i32, i32, i32, ptr, ptr }
%struct.pmix_list_t = type { %struct.pmix_object_t, %struct.pmix_list_item_t, i64 }
%struct.pmix_list_item_t = type { %struct.pmix_object_t, ptr, ptr, i32 }
%struct.pmix_iof_sink_t = type { %struct.pmix_list_item_t, %struct.pmix_proc, i16, %struct.pmix_iof_write_event_t, i8, i8, i8 }
%struct.pmix_proc = type { [256 x i8], i32 }
%struct.pmix_iof_write_event_t = type { %struct.pmix_list_item_t, i8, i8, i32, ptr, %struct.timeval, i32, %struct.pmix_list_t }
%struct.timeval = type { i64, i64 }
%struct.pmix_output_desc_t = type { i8, i8, i32, i8, i32, ptr, ptr, i32, ptr, i32, i8, i8, i8, i8, ptr, i32, i32 }
%struct.pmix_globals_t = type { i32, %struct.pmix_proc, %struct.pmix_value, %struct.pmix_value, ptr, i32, i32, ptr, i32, i32, i32, i32, i32, ptr, ptr, i32, %struct.pmix_events_t, i8, i8, %struct.timeval, %struct.pmix_list_t, %struct.pmix_pointer_array_t, i32, i32, %struct.pmix_hotel_t, i8, %struct.pmix_list_t, i8, i8, i8, i64, %struct.pmix_list_t, %struct.pmix_topology_t, %struct.pmix_cpuset_t, i8, i8, %struct.pmix_iof_flags_t, %struct.pmix_keyindex_t }
%struct.pmix_value = type { i16, %union.anon }
%union.anon = type { %struct.pmix_envar_t }
%struct.pmix_envar_t = type { ptr, ptr, i8 }
%struct.pmix_events_t = type { %struct.pmix_object_t, i64, ptr, ptr, %struct.pmix_list_t, %struct.pmix_list_t, %struct.pmix_list_t, %struct.pmix_list_t }
%struct.pmix_hotel_t = type { %struct.pmix_object_t, i32, ptr, %struct.timeval, ptr, ptr, ptr, ptr, i32 }
%struct.pmix_topology_t = type { ptr, ptr }
%struct.pmix_cpuset_t = type { ptr, ptr }
%struct.pmix_iof_flags_t = type { i8, i8, i8, i8, i8, i8, i8, ptr, ptr, i8, i8, i8, i8, i8, i8 }
%struct.pmix_keyindex_t = type { %struct.pmix_object_t, ptr, i32 }
%struct.pmix_class_t = type { ptr, ptr, ptr, ptr, i32, i32, ptr, ptr, i64 }

@pmix_client_globals = external global %struct.pmix_client_globals_t, align 8
@pmix_output_info = external global [0 x %struct.pmix_output_desc_t], align 8
@pmix_globals = external global %struct.pmix_globals_t, align 8
@.str.82 = private unnamed_addr constant [45 x i8] c"%s iof: closing sink for process %s on fd %d\00", align 1

; Function Attrs: inlinehint nounwind uwtable
define internal void @pmix_obj_run_destructors(ptr noundef %0) #2 {
  %2 = alloca ptr, align 8
  %3 = alloca ptr, align 8
  store ptr %0, ptr %2, align 8, !tbaa !84
  call void @llvm.lifetime.start.p0(i64 8, ptr %3) #13
  %4 = load ptr, ptr %2, align 8, !tbaa !84
  %5 = getelementptr inbounds nuw %struct.pmix_object_t, ptr %4, i32 0, i32 1
  %6 = load ptr, ptr %5, align 8, !tbaa !116
  %7 = getelementptr inbounds nuw %struct.pmix_class_t, ptr %6, i32 0, i32 7
  %8 = load ptr, ptr %7, align 8, !tbaa !148
  store ptr %8, ptr %3, align 8, !tbaa !14
  br label %9

9:                                                ; preds = %13, %1
  %10 = load ptr, ptr %3, align 8, !tbaa !14
  %11 = load ptr, ptr %10, align 8, !tbaa !14
  %12 = icmp ne ptr null, %11
  br i1 %12, label %13, label %19

13:                                               ; preds = %9
  %14 = load ptr, ptr %3, align 8, !tbaa !14
  %15 = load ptr, ptr %14, align 8, !tbaa !14
  %16 = load ptr, ptr %2, align 8, !tbaa !84
  call void %15(ptr noundef %16)
  %17 = load ptr, ptr %3, align 8, !tbaa !14
  %18 = getelementptr inbounds nuw ptr, ptr %17, i32 1
  store ptr %18, ptr %3, align 8, !tbaa !14
  br label %9, !llvm.loop !149

19:                                               ; preds = %9
  call void @llvm.lifetime.end.p0(i64 8, ptr %3) #13
  ret void
}

; Function Attrs: nounwind uwtable
define internal void @iof_sink_destruct(ptr noundef %0) #0 {
  %2 = alloca ptr, align 8
  store ptr %0, ptr %2, align 8, !tbaa !14
  %3 = load ptr, ptr %2, align 8, !tbaa !14
  %4 = getelementptr inbounds nuw %struct.pmix_iof_sink_t, ptr %3, i32 0, i32 3
  %5 = getelementptr inbounds nuw %struct.pmix_iof_write_event_t, ptr %4, i32 0, i32 6
  %6 = load i32, ptr %5, align 8, !tbaa !252
  %7 = icmp sle i32 0, %6
  br i1 %7, label %8, label %36

8:                                                ; preds = %1
  %9 = load i32, ptr getelementptr inbounds nuw (%struct.pmix_client_globals_t, ptr @pmix_client_globals, i32 0, i32 17), align 8, !tbaa !28
  %10 = icmp sge i32 %9, 0
  br i1 %10, label %11, label %31

11:                                               ; preds = %8
  %12 = load i32, ptr getelementptr inbounds nuw (%struct.pmix_client_globals_t, ptr @pmix_client_globals, i32 0, i32 17), align 8, !tbaa !28
  %13 = icmp slt i32 %12, 64
  br i1 %13, label %14, label %31

14:                                               ; preds = %11
  %15 = load i32, ptr getelementptr inbounds nuw (%struct.pmix_client_globals_t, ptr @pmix_client_globals, i32 0, i32 17), align 8, !tbaa !28
  %16 = sext i32 %15 to i64
  %17 = getelementptr inbounds [0 x %struct.pmix_output_desc_t], ptr @pmix_output_info, i64 0, i64 %16
  %18 = getelementptr inbounds nuw %struct.pmix_output_desc_t, ptr %17, i32 0, i32 2
  %19 = load i32, ptr %18, align 4, !tbaa !41
  %20 = icmp sge i32 %19, 20
  br i1 %20, label %21, label %31

21:                                               ; preds = %14
  %22 = load i32, ptr getelementptr inbounds nuw (%struct.pmix_client_globals_t, ptr @pmix_client_globals, i32 0, i32 17), align 8, !tbaa !28
  %23 = call ptr @pmix_util_print_name_args(ptr noundef getelementptr inbounds nuw (%struct.pmix_globals_t, ptr @pmix_globals, i32 0, i32 1))
  %24 = load ptr, ptr %2, align 8, !tbaa !14
  %25 = getelementptr inbounds nuw %struct.pmix_iof_sink_t, ptr %24, i32 0, i32 1
  %26 = call ptr @pmix_util_print_name_args(ptr noundef %25)
  %27 = load ptr, ptr %2, align 8, !tbaa !14
  %28 = getelementptr inbounds nuw %struct.pmix_iof_sink_t, ptr %27, i32 0, i32 3
  %29 = getelementptr inbounds nuw %struct.pmix_iof_write_event_t, ptr %28, i32 0, i32 6
  %30 = load i32, ptr %29, align 8, !tbaa !252
  call void (i32, ptr, ...) @pmix_output(i32 noundef %22, ptr noundef @.str.82, ptr noundef %23, ptr noundef %26, i32 noundef %30)
  br label %31

31:                                               ; preds = %21, %14, %11, %8
  br label %32

32:                                               ; preds = %31
  %33 = load ptr, ptr %2, align 8, !tbaa !14
  %34 = getelementptr inbounds nuw %struct.pmix_iof_sink_t, ptr %33, i32 0, i32 3
  call void @pmix_obj_run_destructors(ptr noundef %34)
  br label %35

35:                                               ; preds = %32
  br label %36

36:                                               ; preds = %35, %1
  ret void
}