; Function Attrs: nounwind uwtable
define internal void @iof_sink_destruct(ptr noundef %0) #0 {
  %2 = getelementptr inbounds nuw i8, ptr %0, i64 408
  %3 = getelementptr inbounds nuw i8, ptr %0, i64 584
  %4 = load i32, ptr %3, align 8, !tbaa !228
  %5 = icmp sgt i32 %4, -1
  br i1 %5, label %6, label %pmix_obj_run_destructors.exit

6:                                                ; preds = %1
  %7 = load i32, ptr getelementptr inbounds nuw (i8, ptr @pmix_client_globals, i64 768), align 8, !tbaa !23
  %or.cond = icmp ult i32 %7, 64
  br i1 %or.cond, label %8, label %18

8:                                                ; preds = %6
  %9 = zext nneg i32 %7 to i64
  %10 = getelementptr inbounds nuw [0 x %struct.pmix_output_desc_t], ptr @pmix_output_info, i64 0, i64 %9, i32 2
  %11 = load i32, ptr %10, align 4, !tbaa !36
  %12 = icmp sgt i32 %11, 19
  br i1 %12, label %13, label %18

13:                                               ; preds = %8
  %14 = tail call ptr @pmix_util_print_name_args(ptr noundef nonnull getelementptr inbounds nuw (i8, ptr @pmix_globals, i64 4)) #18
  %15 = getelementptr inbounds nuw i8, ptr %0, i64 144
  %16 = tail call ptr @pmix_util_print_name_args(ptr noundef nonnull %15) #18
  %17 = load i32, ptr %3, align 8, !tbaa !228
  tail call void (i32, ptr, ...) @pmix_output(i32 noundef %7, ptr noundef nonnull @.str.82, ptr noundef %14, ptr noundef %16, i32 noundef %17) #18
  br label %18

18:                                               ; preds = %6, %8, %13
  %19 = getelementptr inbounds nuw i8, ptr %0, i64 448
  %20 = load ptr, ptr %19, align 8, !tbaa !65
  %21 = getelementptr inbounds nuw i8, ptr %20, i64 48
  %22 = load ptr, ptr %21, align 8, !tbaa !88
  %23 = load ptr, ptr %22, align 8, !tbaa !68
  %.not6.i = icmp eq ptr %23, null
  br i1 %.not6.i, label %pmix_obj_run_destructors.exit, label %.lr.ph.i

.lr.ph.i:                                         ; preds = %18, %.lr.ph.i
  %24 = phi ptr [ %26, %.lr.ph.i ], [ %23, %18 ]
  %.07.i = phi ptr [ %25, %.lr.ph.i ], [ %22, %18 ]
  tail call void %24(ptr noundef nonnull %2) #18
  %25 = getelementptr inbounds nuw i8, ptr %.07.i, i64 8
  %26 = load ptr, ptr %25, align 8, !tbaa !68
  %.not.i = icmp eq ptr %26, null
  br i1 %.not.i, label %pmix_obj_run_destructors.exit, label %.lr.ph.i, !llvm.loop !89

pmix_obj_run_destructors.exit:                    ; preds = %.lr.ph.i, %18, %1
  ret void
}